; Function Attrs: mustprogress uwtable
define void @_ZNK11UatDelegate20updateEditorGeometryEP7QWidgetRK20QStyleOptionViewItemRK11QModelIndex(ptr noundef nonnull align 8 dereferenceable(16) %0, ptr noundef %1, ptr noundef nonnull align 8 dereferenceable(208) %2, ptr noundef nonnull align 8 dereferenceable(24) %3) unnamed_addr #0 align 2 personality ptr @__gxx_personality_v0 {
  %5 = alloca %class.QVariant, align 8
  call void @llvm.lifetime.start.p0(i64 32, ptr nonnull %5)
  %6 = getelementptr inbounds i8, ptr %3, i64 16
  %7 = load ptr, ptr %6, align 8
  %8 = load ptr, ptr %7, align 8
  %9 = getelementptr inbounds i8, ptr %8, i64 144
  %10 = load ptr, ptr %9, align 8
  call void %10(ptr dead_on_unwind nonnull writable sret(%class.QVariant) align 8 %5, ptr noundef nonnull align 8 dereferenceable(16) %7, ptr noundef nonnull align 8 dereferenceable(24) %3, i32 noundef 256)
  %11 = invoke noundef ptr @_Z13qvariant_castIPvET_RK8QVariant(ptr noundef nonnull align 8 dereferenceable(32) %5)
          to label %_ZNK11UatDelegate12indexToFieldERK11QModelIndex.exit unwind label %12

12:                                               ; preds = %4
  %13 = landingpad { ptr, i32 }
          cleanup
  call void @_ZN8QVariantD1Ev(ptr noundef nonnull align 8 dereferenceable(32) %5) #9
  resume { ptr, i32 } %13

_ZNK11UatDelegate12indexToFieldERK11QModelIndex.exit: ; preds = %4
  call void @_ZN8QVariantD1Ev(ptr noundef nonnull align 8 dereferenceable(32) %5) #9
  call void @llvm.lifetime.end.p0(i64 32, ptr nonnull %5)
  %14 = getelementptr inbounds i8, ptr %11, i64 16
  %15 = load i32, ptr %14, align 8
  %16 = and i32 %15, -2
  %switch = icmp eq i32 %16, 6
  br i1 %switch, label %17, label %19

17:                                               ; preds = %_ZNK11UatDelegate12indexToFieldERK11QModelIndex.exit
  %18 = getelementptr inbounds i8, ptr %2, i64 16
  call void @_ZN7QWidget11setGeometryERK5QRect(ptr noundef nonnull align 8 dereferenceable(40) %1, ptr noundef nonnull align 4 dereferenceable(16) %18)
  br label %20

19:                                               ; preds = %_ZNK11UatDelegate12indexToFieldERK11QModelIndex.exit
  call void @_ZNK19QStyledItemDelegate20updateEditorGeometryEP7QWidgetRK20QStyleOptionViewItemRK11QModelIndex(ptr noundef nonnull align 8 dereferenceable(16) %0, ptr noundef %1, ptr noundef nonnull align 8 dereferenceable(208) %2, ptr noundef nonnull align 8 dereferenceable(24) %3)
  br label %20

20:                                               ; preds = %19, %17
  ret void
}